target datalayout = "e-m:e-p270:32:32-p271:32:32-p272:64:64-i64:64-i128:128-f80:128-n8:16:32:64-S128"
target triple = "x86_64-pc-linux-gnu"

%"class.cv::Subdiv2D" = type { %"class.std::vector", %"class.std::vector.0", i32, i32, i8, i32, %"class.cv::Point_", %"class.cv::Point_" }
%"class.std::vector" = type { %"struct.std::_Vector_base" }
%"struct.std::_Vector_base" = type { %"struct.std::_Vector_base<cv::Subdiv2D::Vertex, std::allocator<cv::Subdiv2D::Vertex>>::_Vector_impl" }
%"struct.std::_Vector_base<cv::Subdiv2D::Vertex, std::allocator<cv::Subdiv2D::Vertex>>::_Vector_impl" = type { %"struct.std::_Vector_base<cv::Subdiv2D::Vertex, std::allocator<cv::Subdiv2D::Vertex>>::_Vector_impl_data" }
%"struct.std::_Vector_base<cv::Subdiv2D::Vertex, std::allocator<cv::Subdiv2D::Vertex>>::_Vector_impl_data" = type { ptr, ptr, ptr }
%"class.std::vector.0" = type { %"struct.std::_Vector_base.1" }
%"struct.std::_Vector_base.1" = type { %"struct.std::_Vector_base<cv::Subdiv2D::QuadEdge, std::allocator<cv::Subdiv2D::QuadEdge>>::_Vector_impl" }
%"struct.std::_Vector_base<cv::Subdiv2D::QuadEdge, std::allocator<cv::Subdiv2D::QuadEdge>>::_Vector_impl" = type { %"struct.std::_Vector_base<cv::Subdiv2D::QuadEdge, std::allocator<cv::Subdiv2D::QuadEdge>>::_Vector_impl_data" }
%"struct.std::_Vector_base<cv::Subdiv2D::QuadEdge, std::allocator<cv::Subdiv2D::QuadEdge>>::_Vector_impl_data" = type { ptr, ptr, ptr }
%"class.cv::Point_" = type { float, float }
%"struct.cv::Subdiv2D::QuadEdge" = type { [4 x i32], [4 x i32] }
%"struct.cv::Subdiv2D::Vertex" = type { i32, i32, %"class.cv::Point_" }

; Function Attrs: mustprogress nounwind uwtable
define void @_ZN2cv8Subdiv2D11deletePointEi(ptr noundef nonnull align 8 dereferenceable(80) %0, i32 noundef %1) #0 align 2 {
  %3 = alloca ptr, align 8
  %4 = alloca i32, align 4
  store ptr %0, ptr %3, align 8, !tbaa !3
  store i32 %1, ptr %4, align 4, !tbaa !8
  %5 = load ptr, ptr %3, align 8
  %6 = getelementptr inbounds nuw %"class.cv::Subdiv2D", ptr %5, i32 0, i32 3
  %7 = load i32, ptr %6, align 4, !tbaa !42
  %8 = getelementptr inbounds nuw %"class.cv::Subdiv2D", ptr %5, i32 0, i32 0
  %9 = load i32, ptr %4, align 4, !tbaa !8
  %10 = sext i32 %9 to i64
  %11 = call noundef nonnull align 4 dereferenceable(16) ptr @_ZNSt6vectorIN2cv8Subdiv2D6VertexESaIS2_EEixEm(ptr noundef nonnull align 8 dereferenceable(24) %8, i64 noundef %10) #20
  %12 = getelementptr inbounds nuw %"struct.cv::Subdiv2D::Vertex", ptr %11, i32 0, i32 0
  store i32 %7, ptr %12, align 4, !tbaa !29
  %13 = getelementptr inbounds nuw %"class.cv::Subdiv2D", ptr %5, i32 0, i32 0
  %14 = load i32, ptr %4, align 4, !tbaa !8
  %15 = sext i32 %14 to i64
  %16 = call noundef nonnull align 4 dereferenceable(16) ptr @_ZNSt6vectorIN2cv8Subdiv2D6VertexESaIS2_EEixEm(ptr noundef nonnull align 8 dereferenceable(24) %13, i64 noundef %15) #20
  %17 = getelementptr inbounds nuw %"struct.cv::Subdiv2D::Vertex", ptr %16, i32 0, i32 1
  store i32 -1, ptr %17, align 4, !tbaa !56
  %18 = load i32, ptr %4, align 4, !tbaa !8
  %19 = getelementptr inbounds nuw %"class.cv::Subdiv2D", ptr %5, i32 0, i32 3
  store i32 %18, ptr %19, align 4, !tbaa !42
  ret void
}

; Function Attrs: mustprogress nounwind uwtable
define noundef zeroext i1 @_ZNK2cv8Subdiv2D6Vertex9isvirtualEv(ptr noundef nonnull align 4 dereferenceable(16) %0) #0 align 2 {
  %2 = alloca ptr, align 8
  store ptr %0, ptr %2, align 8, !tbaa !55
  %3 = load ptr, ptr %2, align 8
  %4 = getelementptr inbounds nuw %"struct.cv::Subdiv2D::Vertex", ptr %3, i32 0, i32 1
  %5 = load i32, ptr %4, align 4, !tbaa !56
  %6 = icmp sgt i32 %5, 0
  ret i1 %6
}

; Function Attrs: mustprogress nounwind uwtable
define linkonce_odr hidden noundef nonnull align 4 dereferenceable(16) ptr @_ZNSt6vectorIN2cv8Subdiv2D6VertexESaIS2_EEixEm(ptr noundef nonnull align 8 dereferenceable(24) %0, i64 noundef %1) #0 comdat align 2 {
  %3 = alloca ptr, align 8
  %4 = alloca i64, align 8
  store ptr %0, ptr %3, align 8, !tbaa !22
  store i64 %1, ptr %4, align 8, !tbaa !12
  %5 = load ptr, ptr %3, align 8
  %6 = getelementptr inbounds nuw %"struct.std::_Vector_base", ptr %5, i32 0, i32 0
  %7 = getelementptr inbounds nuw %"struct.std::_Vector_base<cv::Subdiv2D::Vertex, std::allocator<cv::Subdiv2D::Vertex>>::_Vector_impl_data", ptr %6, i32 0, i32 0
  %8 = load ptr, ptr %7, align 8, !tbaa !24
  %9 = load i64, ptr %4, align 8, !tbaa !12
  %10 = getelementptr inbounds nuw %"struct.cv::Subdiv2D::Vertex", ptr %8, i64 %9
  ret ptr %10
}

; Function Attrs: mustprogress nounwind uwtable
define linkonce_odr hidden noundef i64 @_ZNKSt6vectorIN2cv8Subdiv2D6VertexESaIS2_EE4sizeEv(ptr noundef nonnull align 8 dereferenceable(24) %0) #0 comdat align 2 {
  %2 = alloca ptr, align 8
  store ptr %0, ptr %2, align 8, !tbaa !22
  %3 = load ptr, ptr %2, align 8
  %4 = getelementptr inbounds nuw %"struct.std::_Vector_base", ptr %3, i32 0, i32 0
  %5 = getelementptr inbounds nuw %"struct.std::_Vector_base<cv::Subdiv2D::Vertex, std::allocator<cv::Subdiv2D::Vertex>>::_Vector_impl_data", ptr %4, i32 0, i32 1
  %6 = load ptr, ptr %5, align 8, !tbaa !47
  %7 = getelementptr inbounds nuw %"struct.std::_Vector_base", ptr %3, i32 0, i32 0
  %8 = getelementptr inbounds nuw %"struct.std::_Vector_base<cv::Subdiv2D::Vertex, std::allocator<cv::Subdiv2D::Vertex>>::_Vector_impl_data", ptr %7, i32 0, i32 0
  %9 = load ptr, ptr %8, align 8, !tbaa !24
  %10 = ptrtoint ptr %6 to i64
  %11 = ptrtoint ptr %9 to i64
  %12 = sub i64 %10, %11
  %13 = sdiv exact i64 %12, 16
  ret i64 %13
}

; Function Attrs: mustprogress nounwind uwtable
define linkonce_odr hidden noundef nonnull align 4 dereferenceable(32) ptr @_ZNSt6vectorIN2cv8Subdiv2D8QuadEdgeESaIS2_EEixEm(ptr noundef nonnull align 8 dereferenceable(24) %0, i64 noundef %1) #0 comdat align 2 {
  %3 = alloca ptr, align 8
  %4 = alloca i64, align 8
  store ptr %0, ptr %3, align 8, !tbaa !10
  store i64 %1, ptr %4, align 8, !tbaa !12
  %5 = load ptr, ptr %3, align 8
  %6 = getelementptr inbounds nuw %"struct.std::_Vector_base.1", ptr %5, i32 0, i32 0
  %7 = getelementptr inbounds nuw %"struct.std::_Vector_base<cv::Subdiv2D::QuadEdge, std::allocator<cv::Subdiv2D::QuadEdge>>::_Vector_impl_data", ptr %6, i32 0, i32 0
  %8 = load ptr, ptr %7, align 8, !tbaa !14
  %9 = load i64, ptr %4, align 8, !tbaa !12
  %10 = getelementptr inbounds nuw %"struct.cv::Subdiv2D::QuadEdge", ptr %8, i64 %9
  ret ptr %10
}

; Function Attrs: mustprogress nounwind uwtable
define linkonce_odr hidden noundef i64 @_ZNKSt6vectorIN2cv8Subdiv2D8QuadEdgeESaIS2_EE4sizeEv(ptr noundef nonnull align 8 dereferenceable(24) %0) #0 comdat align 2 {
  %2 = alloca ptr, align 8
  store ptr %0, ptr %2, align 8, !tbaa !10
  %3 = load ptr, ptr %2, align 8
  %4 = getelementptr inbounds nuw %"struct.std::_Vector_base.1", ptr %3, i32 0, i32 0
  %5 = getelementptr inbounds nuw %"struct.std::_Vector_base<cv::Subdiv2D::QuadEdge, std::allocator<cv::Subdiv2D::QuadEdge>>::_Vector_impl_data", ptr %4, i32 0, i32 1
  %6 = load ptr, ptr %5, align 8, !tbaa !46
  %7 = getelementptr inbounds nuw %"struct.std::_Vector_base.1", ptr %3, i32 0, i32 0
  %8 = getelementptr inbounds nuw %"struct.std::_Vector_base<cv::Subdiv2D::QuadEdge, std::allocator<cv::Subdiv2D::QuadEdge>>::_Vector_impl_data", ptr %7, i32 0, i32 0
  %9 = load ptr, ptr %8, align 8, !tbaa !14
  %10 = ptrtoint ptr %6 to i64
  %11 = ptrtoint ptr %9 to i64
  %12 = sub i64 %10, %11
  %13 = sdiv exact i64 %12, 32
  ret i64 %13
}

; Function Attrs: mustprogress nounwind uwtable
define void @_ZN2cv8Subdiv2D12clearVoronoiEv(ptr noundef nonnull align 8 dereferenceable(80) %0) #0 align 2 {
  %2 = alloca ptr, align 8
  %3 = alloca i64, align 8
  %4 = alloca i64, align 8
  store ptr %0, ptr %2, align 8, !tbaa !3
  %5 = load ptr, ptr %2, align 8
  call void @llvm.lifetime.start.p0(i64 8, ptr %3) #20
  call void @llvm.lifetime.start.p0(i64 8, ptr %4) #20
  %6 = getelementptr inbounds nuw %"class.cv::Subdiv2D", ptr %5, i32 0, i32 1
  %7 = call noundef i64 @_ZNKSt6vectorIN2cv8Subdiv2D8QuadEdgeESaIS2_EE4sizeEv(ptr noundef nonnull align 8 dereferenceable(24) %6) #20
  store i64 %7, ptr %4, align 8, !tbaa !12
  store i64 0, ptr %3, align 8, !tbaa !12
  br label %8

8:                                                ; preds = %23, %1
  %9 = load i64, ptr %3, align 8, !tbaa !12
  %10 = load i64, ptr %4, align 8, !tbaa !12
  %11 = icmp ult i64 %9, %10
  br i1 %11, label %12, label %26

12:                                               ; preds = %8
  %13 = getelementptr inbounds nuw %"class.cv::Subdiv2D", ptr %5, i32 0, i32 1
  %14 = load i64, ptr %3, align 8, !tbaa !12
  %15 = call noundef nonnull align 4 dereferenceable(32) ptr @_ZNSt6vectorIN2cv8Subdiv2D8QuadEdgeESaIS2_EEixEm(ptr noundef nonnull align 8 dereferenceable(24) %13, i64 noundef %14) #20
  %16 = getelementptr inbounds nuw %"struct.cv::Subdiv2D::QuadEdge", ptr %15, i32 0, i32 1
  %17 = getelementptr inbounds [4 x i32], ptr %16, i64 0, i64 3
  store i32 0, ptr %17, align 4, !tbaa !8
  %18 = getelementptr inbounds nuw %"class.cv::Subdiv2D", ptr %5, i32 0, i32 1
  %19 = load i64, ptr %3, align 8, !tbaa !12
  %20 = call noundef nonnull align 4 dereferenceable(32) ptr @_ZNSt6vectorIN2cv8Subdiv2D8QuadEdgeESaIS2_EEixEm(ptr noundef nonnull align 8 dereferenceable(24) %18, i64 noundef %19) #20
  %21 = getelementptr inbounds nuw %"struct.cv::Subdiv2D::QuadEdge", ptr %20, i32 0, i32 1
  %22 = getelementptr inbounds [4 x i32], ptr %21, i64 0, i64 1
  store i32 0, ptr %22, align 4, !tbaa !8
  br label %23

23:                                               ; preds = %12
  %24 = load i64, ptr %3, align 8, !tbaa !12
  %25 = add i64 %24, 1
  store i64 %25, ptr %3, align 8, !tbaa !12
  br label %8, !llvm.loop !91

26:                                               ; preds = %8
  %27 = getelementptr inbounds nuw %"class.cv::Subdiv2D", ptr %5, i32 0, i32 0
  %28 = call noundef i64 @_ZNKSt6vectorIN2cv8Subdiv2D6VertexESaIS2_EE4sizeEv(ptr noundef nonnull align 8 dereferenceable(24) %27) #20
  store i64 %28, ptr %4, align 8, !tbaa !12
  store i64 0, ptr %3, align 8, !tbaa !12
  br label %29

29:                                               ; preds = %42, %26
  %30 = load i64, ptr %3, align 8, !tbaa !12
  %31 = load i64, ptr %4, align 8, !tbaa !12
  %32 = icmp ult i64 %30, %31
  br i1 %32, label %33, label %45

33:                                               ; preds = %29
  %34 = getelementptr inbounds nuw %"class.cv::Subdiv2D", ptr %5, i32 0, i32 0
  %35 = load i64, ptr %3, align 8, !tbaa !12
  %36 = call noundef nonnull align 4 dereferenceable(16) ptr @_ZNSt6vectorIN2cv8Subdiv2D6VertexESaIS2_EEixEm(ptr noundef nonnull align 8 dereferenceable(24) %34, i64 noundef %35) #20
  %37 = call noundef zeroext i1 @_ZNK2cv8Subdiv2D6Vertex9isvirtualEv(ptr noundef nonnull align 4 dereferenceable(16) %36)
  br i1 %37, label %38, label %41

38:                                               ; preds = %33
  %39 = load i64, ptr %3, align 8, !tbaa !12
  %40 = trunc i64 %39 to i32
  call void @_ZN2cv8Subdiv2D11deletePointEi(ptr noundef nonnull align 8 dereferenceable(80) %5, i32 noundef %40)
  br label %41

41:                                               ; preds = %38, %33
  br label %42

42:                                               ; preds = %41
  %43 = load i64, ptr %3, align 8, !tbaa !12
  %44 = add i64 %43, 1
  store i64 %44, ptr %3, align 8, !tbaa !12
  br label %29, !llvm.loop !92

45:                                               ; preds = %29
  %46 = getelementptr inbounds nuw %"class.cv::Subdiv2D", ptr %5, i32 0, i32 4
  store i8 0, ptr %46, align 8, !tbaa !32
  call void @llvm.lifetime.end.p0(i64 8, ptr %4) #20
  call void @llvm.lifetime.end.p0(i64 8, ptr %3) #20
  ret void
}