; Function Attrs: mustprogress nofree norecurse nosync nounwind memory(readwrite, inaccessiblemem: none) uwtable
define void @_ZN2cv8Subdiv2D12clearVoronoiEv(ptr noundef nonnull align 8 captures(none) dereferenceable(80) %0) local_unnamed_addr #18 align 2 {
  %2 = getelementptr inbounds nuw i8, ptr %0, i64 24
  %3 = getelementptr inbounds nuw i8, ptr %0, i64 32
  %4 = load ptr, ptr %3, align 8, !tbaa !19
  %5 = load ptr, ptr %2, align 8, !tbaa !3
  %.not = icmp eq ptr %4, %5
  br i1 %.not, label %._crit_edge, label %.lr.ph.preheader

.lr.ph.preheader:                                 ; preds = %1
  %6 = ptrtoint ptr %4 to i64
  %7 = ptrtoint ptr %5 to i64
  %8 = sub i64 %6, %7
  %9 = ashr exact i64 %8, 5
  %umax = tail call i64 @llvm.umax.i64(i64 %9, i64 1)
  br label %.lr.ph

.lr.ph:                                           ; preds = %.lr.ph.preheader, %.lr.ph
  %.010 = phi i64 [ %13, %.lr.ph ], [ 0, %.lr.ph.preheader ]
  %10 = getelementptr inbounds nuw %"struct.cv::Subdiv2D::QuadEdge", ptr %5, i64 %.010
  %11 = getelementptr inbounds nuw i8, ptr %10, i64 28
  store i32 0, ptr %11, align 4, !tbaa !9
  %12 = getelementptr inbounds nuw i8, ptr %10, i64 20
  store i32 0, ptr %12, align 4, !tbaa !9
  %13 = add nuw i64 %.010, 1
  %exitcond.not = icmp eq i64 %13, %umax
  br i1 %exitcond.not, label %._crit_edge, label %.lr.ph, !llvm.loop !75

._crit_edge:                                      ; preds = %.lr.ph, %1
  %14 = getelementptr inbounds nuw i8, ptr %0, i64 8
  %15 = load ptr, ptr %14, align 8, !tbaa !18
  %16 = load ptr, ptr %0, align 8, !tbaa !11
  %.not15 = icmp eq ptr %15, %16
  br i1 %.not15, label %._crit_edge14, label %.lr.ph13

.lr.ph13:                                         ; preds = %._crit_edge
  %17 = ptrtoint ptr %15 to i64
  %18 = ptrtoint ptr %16 to i64
  %19 = sub i64 %17, %18
  %20 = ashr exact i64 %19, 4
  %21 = getelementptr inbounds nuw i8, ptr %0, i64 52
  %.promoted = load i32, ptr %21, align 4
  %umax16 = tail call i64 @llvm.umax.i64(i64 %20, i64 1)
  br label %22

22:                                               ; preds = %.lr.ph13, %32
  %23 = phi i32 [ %.promoted, %.lr.ph13 ], [ %33, %32 ]
  %.111 = phi i64 [ 0, %.lr.ph13 ], [ %34, %32 ]
  %24 = getelementptr inbounds nuw %"struct.cv::Subdiv2D::Vertex", ptr %16, i64 %.111, i32 1
  %25 = load i32, ptr %24, align 4, !tbaa !54
  %26 = icmp sgt i32 %25, 0
  br i1 %26, label %27, label %32

27:                                               ; preds = %22
  %28 = trunc i64 %.111 to i32
  %sext = shl i64 %.111, 32
  %29 = ashr exact i64 %sext, 28
  %30 = getelementptr inbounds nuw i8, ptr %16, i64 %29
  store i32 %23, ptr %30, align 4, !tbaa !14
  %31 = getelementptr inbounds nuw i8, ptr %30, i64 4
  store i32 -1, ptr %31, align 4, !tbaa !54
  store i32 %28, ptr %21, align 4, !tbaa !48
  br label %32

32:                                               ; preds = %22, %27
  %33 = phi i32 [ %23, %22 ], [ %28, %27 ]
  %34 = add nuw i64 %.111, 1
  %exitcond17.not = icmp eq i64 %34, %umax16
  br i1 %exitcond17.not, label %._crit_edge14, label %22, !llvm.loop !76

._crit_edge14:                                    ; preds = %32, %._crit_edge
  %35 = getelementptr inbounds nuw i8, ptr %0, i64 56
  store i8 0, ptr %35, align 8, !tbaa !29
  ret void
}